target datalayout = "e-m:e-p270:32:32-p271:32:32-p272:64:64-i64:64-i128:128-f80:128-n8:16:32:64-S128"
target triple = "x86_64-pc-linux-gnu"

%struct._packet_info = type { ptr, ptr, i32, i32, %struct.nstime_t, %struct.nstime_t, %struct.nstime_t, i8, ptr, ptr, ptr, ptr, %struct._address, %struct._address, %struct._address, %struct._address, %struct._address, %struct._address, i32, ptr, i8, [3 x i8], %struct.anon, i32, i32, i32, i32, ptr, i8, ptr, ptr, i16, i16, i32, i32, i16, i32, i32, ptr, ptr, ptr, i8, i8, i16, i16, i16, i32, i16, i16, ptr, ptr, ptr, ptr, ptr, i32, i32 }
%struct.nstime_t = type { i64, i32 }
%struct._address = type { i32, i32, ptr, ptr }
%struct.anon = type { i8, [3 x i8] }

@.str.166 = private unnamed_addr constant [20 x i8] c"[OpcUa Null String]\00", align 1
@.str.167 = private unnamed_addr constant [21 x i8] c"[OpcUa Empty String]\00", align 1
@.str.168 = private unnamed_addr constant [36 x i8] c"[Invalid String] Invalid length: %d\00", align 1
@.str.169 = private unnamed_addr constant [3 x i8] c"%s\00", align 1
@.str.170 = private unnamed_addr constant [1 x i8] zeroinitializer, align 1

; Function Attrs: null_pointer_is_valid sspstrong uwtable
define hidden ptr @parseString_ret_string_and_length(ptr noundef %0, ptr noundef %1, ptr noundef %2, ptr noundef %3, i32 noundef %4, ptr noundef %5, ptr noundef %6) #0 {
  %8 = alloca ptr, align 8
  %9 = alloca ptr, align 8
  %10 = alloca ptr, align 8
  %11 = alloca ptr, align 8
  %12 = alloca i32, align 4
  %13 = alloca ptr, align 8
  %14 = alloca ptr, align 8
  %15 = alloca ptr, align 8
  %16 = alloca ptr, align 8
  %17 = alloca i32, align 4
  %18 = alloca i32, align 4
  store ptr %0, ptr %8, align 8
  store ptr %1, ptr %9, align 8
  store ptr %2, ptr %10, align 8
  store ptr %3, ptr %11, align 8
  store i32 %4, ptr %12, align 4
  store ptr %5, ptr %13, align 8
  store ptr %6, ptr %14, align 8
  call void @llvm.lifetime.start.p0(i64 8, ptr %15) #3
  store ptr null, ptr %15, align 8
  call void @llvm.lifetime.start.p0(i64 8, ptr %16) #3
  call void @llvm.lifetime.start.p0(i64 4, ptr %17) #3
  %19 = load ptr, ptr %11, align 8
  %20 = load i32, ptr %19, align 4
  store i32 %20, ptr %17, align 4
  call void @llvm.lifetime.start.p0(i64 4, ptr %18) #3
  %21 = load ptr, ptr %9, align 8
  %22 = load ptr, ptr %11, align 8
  %23 = load i32, ptr %22, align 4
  %24 = call i32 @tvb_get_letohl(ptr noundef %21, i32 noundef %23)
  store i32 %24, ptr %18, align 4
  %25 = load i32, ptr %17, align 4
  %26 = add i32 %25, 4
  store i32 %26, ptr %17, align 4
  %27 = load ptr, ptr %13, align 8
  %28 = icmp ne ptr %27, null
  br i1 %28, label %29, label %31

29:                                               ; preds = %7
  %30 = load ptr, ptr %13, align 8
  store ptr @.str.170, ptr %30, align 8
  br label %31

31:                                               ; preds = %29, %7
  %32 = load ptr, ptr %14, align 8
  %33 = icmp ne ptr %32, null
  br i1 %33, label %34, label %37

34:                                               ; preds = %31
  %35 = load i32, ptr %18, align 4
  %36 = load ptr, ptr %14, align 8
  store i32 %35, ptr %36, align 4
  br label %37

37:                                               ; preds = %34, %31
  %38 = load i32, ptr %18, align 4
  %39 = icmp eq i32 %38, -1
  br i1 %39, label %40, label %53

40:                                               ; preds = %37
  %41 = load ptr, ptr %8, align 8
  %42 = load i32, ptr %12, align 4
  %43 = load ptr, ptr %9, align 8
  %44 = load ptr, ptr %11, align 8
  %45 = load i32, ptr %44, align 4
  %46 = call ptr @proto_tree_add_item(ptr noundef %41, i32 noundef %42, ptr noundef %43, i32 noundef %45, i32 noundef 0, i32 noundef 0)
  store ptr %46, ptr %15, align 8
  %47 = load ptr, ptr %15, align 8
  call void (ptr, ptr, ...) @proto_item_append_text(ptr noundef %47, ptr noundef @.str.166)
  %48 = load ptr, ptr %15, align 8
  %49 = load ptr, ptr %9, align 8
  %50 = load ptr, ptr %11, align 8
  %51 = load i32, ptr %50, align 4
  %52 = add i32 %51, 4
  call void @proto_item_set_end(ptr noundef %48, ptr noundef %49, i32 noundef %52)
  br label %105

53:                                               ; preds = %37
  %54 = load i32, ptr %18, align 4
  %55 = icmp eq i32 %54, 0
  br i1 %55, label %56, label %69

56:                                               ; preds = %53
  %57 = load ptr, ptr %8, align 8
  %58 = load i32, ptr %12, align 4
  %59 = load ptr, ptr %9, align 8
  %60 = load ptr, ptr %11, align 8
  %61 = load i32, ptr %60, align 4
  %62 = call ptr @proto_tree_add_item(ptr noundef %57, i32 noundef %58, ptr noundef %59, i32 noundef %61, i32 noundef 0, i32 noundef 0)
  store ptr %62, ptr %15, align 8
  %63 = load ptr, ptr %15, align 8
  call void (ptr, ptr, ...) @proto_item_append_text(ptr noundef %63, ptr noundef @.str.167)
  %64 = load ptr, ptr %15, align 8
  %65 = load ptr, ptr %9, align 8
  %66 = load ptr, ptr %11, align 8
  %67 = load i32, ptr %66, align 4
  %68 = add i32 %67, 4
  call void @proto_item_set_end(ptr noundef %64, ptr noundef %65, i32 noundef %68)
  br label %104

69:                                               ; preds = %53
  %70 = load i32, ptr %18, align 4
  %71 = icmp sgt i32 %70, 0
  br i1 %71, label %72, label %84

72:                                               ; preds = %69
  %73 = load ptr, ptr %8, align 8
  %74 = load i32, ptr %12, align 4
  %75 = load ptr, ptr %9, align 8
  %76 = load i32, ptr %17, align 4
  %77 = load i32, ptr %18, align 4
  %78 = load ptr, ptr %13, align 8
  %79 = load ptr, ptr %14, align 8
  %80 = call ptr @proto_tree_add_item_ret_string_and_length(ptr noundef %73, i32 noundef %74, ptr noundef %75, i32 noundef %76, i32 noundef %77, i32 noundef 2, ptr noundef null, ptr noundef %78, ptr noundef %79)
  store ptr %80, ptr %15, align 8
  %81 = load i32, ptr %18, align 4
  %82 = load i32, ptr %17, align 4
  %83 = add i32 %82, %81
  store i32 %83, ptr %17, align 4
  br label %103

84:                                               ; preds = %69
  %85 = load ptr, ptr %8, align 8
  %86 = load i32, ptr %12, align 4
  %87 = load ptr, ptr %9, align 8
  %88 = load ptr, ptr %11, align 8
  %89 = load i32, ptr %88, align 4
  %90 = call ptr @proto_tree_add_item(ptr noundef %85, i32 noundef %86, ptr noundef %87, i32 noundef %89, i32 noundef 0, i32 noundef 0)
  store ptr %90, ptr %15, align 8
  %91 = load ptr, ptr %10, align 8
  %92 = getelementptr inbounds nuw %struct._packet_info, ptr %91, i32 0, i32 51
  %93 = load ptr, ptr %92, align 8
  %94 = load i32, ptr %18, align 4
  %95 = call noalias ptr (ptr, ptr, ...) @wmem_strdup_printf(ptr noundef %93, ptr noundef @.str.168, i32 noundef %94)
  store ptr %95, ptr %16, align 8
  %96 = load ptr, ptr %15, align 8
  %97 = load ptr, ptr %16, align 8
  call void (ptr, ptr, ...) @proto_item_append_text(ptr noundef %96, ptr noundef @.str.169, ptr noundef %97)
  %98 = load ptr, ptr %15, align 8
  %99 = load ptr, ptr %9, align 8
  %100 = load ptr, ptr %11, align 8
  %101 = load i32, ptr %100, align 4
  %102 = add i32 %101, 4
  call void @proto_item_set_end(ptr noundef %98, ptr noundef %99, i32 noundef %102)
  br label %103

103:                                              ; preds = %84, %72
  br label %104

104:                                              ; preds = %103, %56
  br label %105

105:                                              ; preds = %104, %40
  %106 = load i32, ptr %17, align 4
  %107 = load ptr, ptr %11, align 8
  store i32 %106, ptr %107, align 4
  %108 = load ptr, ptr %15, align 8
  call void @llvm.lifetime.end.p0(i64 4, ptr %18) #3
  call void @llvm.lifetime.end.p0(i64 4, ptr %17) #3
  call void @llvm.lifetime.end.p0(i64 8, ptr %16) #3
  call void @llvm.lifetime.end.p0(i64 8, ptr %15) #3
  ret ptr %108
}