; Function Attrs: null_pointer_is_valid sspstrong uwtable
define hidden ptr @parseString_ret_string_and_length(ptr noundef %0, ptr noundef %1, ptr noundef readonly captures(none) %2, ptr noundef captures(none) %3, i32 noundef %4, ptr noundef %5, ptr noundef %6) local_unnamed_addr #0 {
  %8 = load i32, ptr %3, align 4
  %9 = tail call i32 @tvb_get_letohl(ptr noundef %1, i32 noundef %8)
  %10 = add i32 %8, 4
  %.not = icmp eq ptr %5, null
  br i1 %.not, label %12, label %11

11:                                               ; preds = %7
  store ptr @.str.170, ptr %5, align 8
  br label %12

12:                                               ; preds = %11, %7
  %.not54 = icmp eq ptr %6, null
  br i1 %.not54, label %14, label %13

13:                                               ; preds = %12
  store i32 %9, ptr %6, align 4
  br label %14

14:                                               ; preds = %13, %12
  switch i32 %9, label %25 [
    i32 -1, label %15
    i32 0, label %20
  ]

15:                                               ; preds = %14
  %16 = load i32, ptr %3, align 4
  %17 = tail call ptr @proto_tree_add_item(ptr noundef %0, i32 noundef %4, ptr noundef %1, i32 noundef %16, i32 noundef 0, i32 noundef 0)
  tail call void (ptr, ptr, ...) @proto_item_append_text(ptr noundef %17, ptr noundef nonnull @.str.166)
  %18 = load i32, ptr %3, align 4
  %19 = add i32 %18, 4
  tail call void @proto_item_set_end(ptr noundef %17, ptr noundef %1, i32 noundef %19)
  br label %38

20:                                               ; preds = %14
  %21 = load i32, ptr %3, align 4
  %22 = tail call ptr @proto_tree_add_item(ptr noundef %0, i32 noundef %4, ptr noundef %1, i32 noundef %21, i32 noundef 0, i32 noundef 0)
  tail call void (ptr, ptr, ...) @proto_item_append_text(ptr noundef %22, ptr noundef nonnull @.str.167)
  %23 = load i32, ptr %3, align 4
  %24 = add i32 %23, 4
  tail call void @proto_item_set_end(ptr noundef %22, ptr noundef %1, i32 noundef %24)
  br label %38

25:                                               ; preds = %14
  %26 = icmp sgt i32 %9, 0
  br i1 %26, label %27, label %30

27:                                               ; preds = %25
  %28 = tail call ptr @proto_tree_add_item_ret_string_and_length(ptr noundef %0, i32 noundef %4, ptr noundef %1, i32 noundef %10, i32 noundef %9, i32 noundef 2, ptr noundef null, ptr noundef %5, ptr noundef %6)
  %29 = add i32 %10, %9
  br label %38

30:                                               ; preds = %25
  %31 = load i32, ptr %3, align 4
  %32 = tail call ptr @proto_tree_add_item(ptr noundef %0, i32 noundef %4, ptr noundef %1, i32 noundef %31, i32 noundef 0, i32 noundef 0)
  %33 = getelementptr inbounds nuw i8, ptr %2, i64 408
  %34 = load ptr, ptr %33, align 8
  %35 = tail call noalias ptr (ptr, ptr, ...) @wmem_strdup_printf(ptr noundef %34, ptr noundef nonnull @.str.168, i32 noundef %9)
  tail call void (ptr, ptr, ...) @proto_item_append_text(ptr noundef %32, ptr noundef nonnull @.str.169, ptr noundef %35)
  %36 = load i32, ptr %3, align 4
  %37 = add i32 %36, 4
  tail call void @proto_item_set_end(ptr noundef %32, ptr noundef %1, i32 noundef %37)
  br label %38

38:                                               ; preds = %20, %30, %27, %15
  %.050 = phi i32 [ %10, %15 ], [ %10, %20 ], [ %29, %27 ], [ %10, %30 ]
  %.0 = phi ptr [ %17, %15 ], [ %22, %20 ], [ %28, %27 ], [ %32, %30 ]
  store i32 %.050, ptr %3, align 4
  ret ptr %.0
}